; Function Attrs: nofree norecurse nosync nounwind memory(argmem: readwrite) uwtable
define dso_local range(i32 0, 2) i32 @string2ll(ptr noundef readonly captures(none) %0, i64 noundef %1, ptr noundef writeonly captures(address_is_null) %2) local_unnamed_addr #12 {
  %4 = add i64 %1, -21
  %or.cond = icmp ult i64 %4, -20
  br i1 %or.cond, label %.critedge, label %5

5:                                                ; preds = %3
  %6 = icmp eq i64 %1, 1
  %7 = load i8, ptr %0, align 1, !tbaa !9
  br i1 %6, label %8, label %.thread

8:                                                ; preds = %5
  switch i8 %7, label %.thread71 [
    i8 48, label %9
    i8 45, label %.critedge
  ]

9:                                                ; preds = %8
  %.not56 = icmp eq ptr %2, null
  br i1 %.not56, label %.critedge, label %.critedge.sink.split

.thread:                                          ; preds = %5
  %.not60 = icmp eq i8 %7, 45
  br i1 %.not60, label %.thread63, label %11

.thread63:                                        ; preds = %.thread
  %10 = getelementptr inbounds nuw i8, ptr %0, i64 1
  %.pre = load i8, ptr %10, align 1, !tbaa !9
  br label %11

11:                                               ; preds = %.thread63, %.thread
  %12 = phi i8 [ %7, %.thread ], [ %.pre, %.thread63 ]
  %.044 = phi ptr [ %0, %.thread ], [ %10, %.thread63 ]
  %.043 = phi i64 [ 1, %.thread ], [ 2, %.thread63 ]
  %13 = add i8 %12, -49
  %or.cond57 = icmp ult i8 %13, 9
  br i1 %or.cond57, label %16, label %.critedge

.thread71:                                        ; preds = %8
  %14 = add i8 %7, -49
  %or.cond5775 = icmp ult i8 %14, 9
  br i1 %or.cond5775, label %.thread88, label %.critedge

.thread88:                                        ; preds = %.thread71
  %narrow83 = add nsw i8 %7, -48
  %15 = zext nneg i8 %narrow83 to i64
  br label %37

16:                                               ; preds = %11
  %narrow = add nsw i8 %12, -48
  %17 = zext nneg i8 %narrow to i64
  %18 = icmp samesign ult i64 %.043, %1
  br i1 %18, label %.lr.ph, label %.critedge59

.lr.ph:                                           ; preds = %16, %27
  %.14570.pn = phi ptr [ %.14570, %27 ], [ %.044, %16 ]
  %.069 = phi i64 [ %28, %27 ], [ %17, %16 ]
  %.168 = phi i64 [ %29, %27 ], [ %.043, %16 ]
  %.14570 = getelementptr inbounds nuw i8, ptr %.14570.pn, i64 1
  %19 = load i8, ptr %.14570, align 1, !tbaa !9
  %20 = add i8 %19, -58
  %or.cond58 = icmp ult i8 %20, -10
  %21 = icmp ugt i64 %.069, 1844674407370955161
  %or.cond65 = select i1 %or.cond58, i1 true, i1 %21
  br i1 %or.cond65, label %.critedge, label %22

22:                                               ; preds = %.lr.ph
  %23 = mul nuw i64 %.069, 10
  %narrow55 = add nsw i8 %19, -48
  %24 = zext nneg i8 %narrow55 to i64
  %25 = xor i64 %24, -1
  %26 = icmp ugt i64 %23, %25
  br i1 %26, label %.critedge, label %27

27:                                               ; preds = %22
  %28 = add i64 %23, %24
  %29 = add nuw i64 %.168, 1
  %exitcond.not = icmp eq i64 %29, %1
  br i1 %exitcond.not, label %.critedge59, label %.lr.ph, !llvm.loop !34

.critedge59:                                      ; preds = %27, %16
  %.0.lcssa = phi i64 [ %17, %16 ], [ %28, %27 ]
  br i1 %.not60, label %30, label %35

30:                                               ; preds = %.critedge59
  %31 = icmp ugt i64 %.0.lcssa, -9223372036854775808
  br i1 %31, label %.critedge, label %32

32:                                               ; preds = %30
  %.not54 = icmp eq ptr %2, null
  br i1 %.not54, label %.critedge, label %33

33:                                               ; preds = %32
  %34 = sub i64 0, %.0.lcssa
  br label %.critedge.sink.split

35:                                               ; preds = %.critedge59
  %36 = icmp slt i64 %.0.lcssa, 0
  br i1 %36, label %.critedge, label %37

37:                                               ; preds = %.thread88, %35
  %.0.lcssa8790 = phi i64 [ %15, %.thread88 ], [ %.0.lcssa, %35 ]
  %.not53 = icmp eq ptr %2, null
  br i1 %.not53, label %.critedge, label %.critedge.sink.split

.critedge.sink.split:                             ; preds = %37, %9, %33
  %.sink = phi i64 [ %34, %33 ], [ 0, %9 ], [ %.0.lcssa8790, %37 ]
  store i64 %.sink, ptr %2, align 8, !tbaa !35
  br label %.critedge

.critedge:                                        ; preds = %.lr.ph, %22, %.critedge.sink.split, %.thread71, %8, %32, %37, %35, %30, %11, %9, %3
  %.046 = phi i32 [ 0, %3 ], [ 1, %9 ], [ 0, %11 ], [ 0, %30 ], [ 0, %35 ], [ 1, %37 ], [ 1, %32 ], [ 0, %8 ], [ 0, %.thread71 ], [ 1, %.critedge.sink.split ], [ 0, %22 ], [ 0, %.lr.ph ]
  ret i32 %.046
}